target datalayout = "e-m:e-p270:32:32-p271:32:32-p272:64:64-i64:64-i128:128-f80:128-n8:16:32:64-S128"
target triple = "x86_64-pc-linux-gnu"

%struct.lean_object = type { i32, i32 }
%struct.lean_ctor_object = type { %struct.lean_object, [0 x ptr] }

@l_Char_reduceVal___closed__2 = internal global ptr null, align 8
@l_Char_reduceDefault___closed__1 = internal global ptr null, align 8
@l_Char_reduceDefault___closed__4 = internal global ptr null, align 8

; Function Attrs: inlinehint nounwind uwtable
define internal zeroext i1 @lean_is_st(ptr noundef %0) #0 {
  %2 = alloca ptr, align 8
  store ptr %0, ptr %2, align 8, !tbaa !8
  %3 = load ptr, ptr %2, align 8, !tbaa !8
  %4 = getelementptr inbounds nuw %struct.lean_object, ptr %3, i32 0, i32 0
  %5 = load i32, ptr %4, align 4, !tbaa !11
  %6 = icmp sgt i32 %5, 0
  ret i1 %6
}

; Function Attrs: inlinehint nounwind uwtable
define internal ptr @lean_to_ctor(ptr noundef %0) #0 {
  %2 = alloca ptr, align 8
  store ptr %0, ptr %2, align 8, !tbaa !8
  %3 = load ptr, ptr %2, align 8, !tbaa !8
  ret ptr %3
}

; Function Attrs: alwaysinline nounwind uwtable
define internal void @lean_dec_ref(ptr noundef %0) #4 {
  %2 = alloca ptr, align 8
  store ptr %0, ptr %2, align 8, !tbaa !8
  %3 = load ptr, ptr %2, align 8, !tbaa !8
  %4 = getelementptr inbounds nuw %struct.lean_object, ptr %3, i32 0, i32 0
  %5 = load i32, ptr %4, align 4, !tbaa !11
  %6 = icmp sgt i32 %5, 1
  %7 = zext i1 %6 to i32
  %8 = sext i32 %7 to i64
  %9 = call i64 @llvm.expect.i64(i64 %8, i64 1)
  %10 = icmp ne i64 %9, 0
  br i1 %10, label %11, label %16

11:                                               ; preds = %1
  %12 = load ptr, ptr %2, align 8, !tbaa !8
  %13 = getelementptr inbounds nuw %struct.lean_object, ptr %12, i32 0, i32 0
  %14 = load i32, ptr %13, align 4, !tbaa !11
  %15 = add i32 %14, -1
  store i32 %15, ptr %13, align 4, !tbaa !11
  br label %24

16:                                               ; preds = %1
  %17 = load ptr, ptr %2, align 8, !tbaa !8
  %18 = getelementptr inbounds nuw %struct.lean_object, ptr %17, i32 0, i32 0
  %19 = load i32, ptr %18, align 4, !tbaa !11
  %20 = icmp ne i32 %19, 0
  br i1 %20, label %21, label %23

21:                                               ; preds = %16
  %22 = load ptr, ptr %2, align 8, !tbaa !8
  call void @lean_dec_ref_cold(ptr noundef %22)
  br label %23

23:                                               ; preds = %21, %16
  br label %24

24:                                               ; preds = %23, %11
  ret void
}

; Function Attrs: inlinehint nounwind uwtable
define internal void @lean_inc_ref(ptr noundef %0) #0 {
  %2 = alloca ptr, align 8
  store ptr %0, ptr %2, align 8, !tbaa !8
  %3 = load ptr, ptr %2, align 8, !tbaa !8
  %4 = call zeroext i1 @lean_is_st(ptr noundef %3)
  %5 = zext i1 %4 to i64
  %6 = call i64 @llvm.expect.i64(i64 %5, i64 1)
  %7 = icmp ne i64 %6, 0
  br i1 %7, label %8, label %13

8:                                                ; preds = %1
  %9 = load ptr, ptr %2, align 8, !tbaa !8
  %10 = getelementptr inbounds nuw %struct.lean_object, ptr %9, i32 0, i32 0
  %11 = load i32, ptr %10, align 4, !tbaa !11
  %12 = add i32 %11, 1
  store i32 %12, ptr %10, align 4, !tbaa !11
  br label %21

13:                                               ; preds = %1
  %14 = load ptr, ptr %2, align 8, !tbaa !8
  %15 = getelementptr inbounds nuw %struct.lean_object, ptr %14, i32 0, i32 0
  %16 = load i32, ptr %15, align 4, !tbaa !11
  %17 = icmp ne i32 %16, 0
  br i1 %17, label %18, label %20

18:                                               ; preds = %13
  %19 = load ptr, ptr %2, align 8, !tbaa !8
  call void @lean_inc_ref_cold(ptr noundef %19)
  br label %20

20:                                               ; preds = %18, %13
  br label %21

21:                                               ; preds = %20, %8
  ret void
}

; Function Attrs: alwaysinline nounwind uwtable
define internal zeroext i1 @lean_is_scalar(ptr noundef %0) #4 {
  %2 = alloca ptr, align 8
  store ptr %0, ptr %2, align 8, !tbaa !8
  %3 = load ptr, ptr %2, align 8, !tbaa !8
  %4 = ptrtoint ptr %3 to i64
  %5 = and i64 %4, 1
  %6 = icmp eq i64 %5, 1
  ret i1 %6
}

; Function Attrs: inlinehint nounwind uwtable
define internal ptr @lean_ctor_obj_cptr(ptr noundef %0) #0 {
  %2 = alloca ptr, align 8
  store ptr %0, ptr %2, align 8, !tbaa !8
  %3 = load ptr, ptr %2, align 8, !tbaa !8
  %4 = call ptr @lean_to_ctor(ptr noundef %3)
  %5 = getelementptr inbounds nuw %struct.lean_ctor_object, ptr %4, i32 0, i32 1
  %6 = getelementptr inbounds [0 x ptr], ptr %5, i64 0, i64 0
  ret ptr %6
}

; Function Attrs: inlinehint nounwind uwtable
define internal ptr @lean_box(i64 noundef %0) #0 {
  %2 = alloca i64, align 8
  store i64 %0, ptr %2, align 8, !tbaa !15
  %3 = load i64, ptr %2, align 8, !tbaa !15
  %4 = shl i64 %3, 1
  %5 = or i64 %4, 1
  %6 = inttoptr i64 %5 to ptr
  ret ptr %6
}

; Function Attrs: alwaysinline nounwind uwtable
define internal void @lean_dec(ptr noundef %0) #4 {
  %2 = alloca ptr, align 8
  store ptr %0, ptr %2, align 8, !tbaa !8
  %3 = load ptr, ptr %2, align 8, !tbaa !8
  %4 = call zeroext i1 @lean_is_scalar(ptr noundef %3)
  br i1 %4, label %7, label %5

5:                                                ; preds = %1
  %6 = load ptr, ptr %2, align 8, !tbaa !8
  call void @lean_dec_ref(ptr noundef %6)
  br label %7

7:                                                ; preds = %5, %1
  ret void
}

; Function Attrs: alwaysinline nounwind uwtable
define internal void @lean_inc(ptr noundef %0) #4 {
  %2 = alloca ptr, align 8
  store ptr %0, ptr %2, align 8, !tbaa !8
  %3 = load ptr, ptr %2, align 8, !tbaa !8
  %4 = call zeroext i1 @lean_is_scalar(ptr noundef %3)
  br i1 %4, label %7, label %5

5:                                                ; preds = %1
  %6 = load ptr, ptr %2, align 8, !tbaa !8
  call void @lean_inc_ref(ptr noundef %6)
  br label %7

7:                                                ; preds = %5, %1
  ret void
}

; Function Attrs: inlinehint nounwind uwtable
define internal ptr @lean_ctor_get(ptr noundef %0, i32 noundef %1) #0 {
  %3 = alloca ptr, align 8
  %4 = alloca i32, align 4
  store ptr %0, ptr %3, align 8, !tbaa !8
  store i32 %1, ptr %4, align 4, !tbaa !4
  %5 = load ptr, ptr %3, align 8, !tbaa !8
  %6 = call ptr @lean_ctor_obj_cptr(ptr noundef %5)
  %7 = load i32, ptr %4, align 4, !tbaa !4
  %8 = zext i32 %7 to i64
  %9 = getelementptr inbounds nuw ptr, ptr %6, i64 %8
  %10 = load ptr, ptr %9, align 8, !tbaa !8
  ret ptr %10
}

; Function Attrs: nounwind uwtable
define ptr @l_Char_reduceDefault(ptr noundef %0, ptr noundef %1, ptr noundef %2, ptr noundef %3, ptr noundef %4, ptr noundef %5, ptr noundef %6, ptr noundef %7, ptr noundef %8) #1 {
  %10 = alloca ptr, align 8
  %11 = alloca ptr, align 8
  %12 = alloca ptr, align 8
  %13 = alloca ptr, align 8
  %14 = alloca ptr, align 8
  %15 = alloca ptr, align 8
  %16 = alloca ptr, align 8
  %17 = alloca ptr, align 8
  %18 = alloca ptr, align 8
  %19 = alloca ptr, align 8
  %20 = alloca ptr, align 8
  %21 = alloca ptr, align 8
  %22 = alloca ptr, align 8
  %23 = alloca ptr, align 8
  %24 = alloca ptr, align 8
  %25 = alloca ptr, align 8
  %26 = alloca i8, align 1
  %27 = alloca ptr, align 8
  %28 = alloca ptr, align 8
  %29 = alloca i32, align 4
  %30 = alloca ptr, align 8
  %31 = alloca i8, align 1
  %32 = alloca ptr, align 8
  %33 = alloca ptr, align 8
  %34 = alloca ptr, align 8
  %35 = alloca ptr, align 8
  %36 = alloca i8, align 1
  %37 = alloca ptr, align 8
  %38 = alloca ptr, align 8
  %39 = alloca ptr, align 8
  %40 = alloca ptr, align 8
  store ptr %0, ptr %11, align 8, !tbaa !8
  store ptr %1, ptr %12, align 8, !tbaa !8
  store ptr %2, ptr %13, align 8, !tbaa !8
  store ptr %3, ptr %14, align 8, !tbaa !8
  store ptr %4, ptr %15, align 8, !tbaa !8
  store ptr %5, ptr %16, align 8, !tbaa !8
  store ptr %6, ptr %17, align 8, !tbaa !8
  store ptr %7, ptr %18, align 8, !tbaa !8
  store ptr %8, ptr %19, align 8, !tbaa !8
  br label %41

41:                                               ; preds = %9
  call void @llvm.lifetime.start.p0(i64 8, ptr %20) #7
  call void @llvm.lifetime.start.p0(i64 8, ptr %21) #7
  call void @llvm.lifetime.start.p0(i64 8, ptr %22) #7
  call void @llvm.lifetime.start.p0(i64 8, ptr %23) #7
  call void @llvm.lifetime.start.p0(i64 8, ptr %24) #7
  call void @llvm.lifetime.start.p0(i64 8, ptr %25) #7
  call void @llvm.lifetime.start.p0(i64 1, ptr %26) #7
  %42 = load ptr, ptr %11, align 8, !tbaa !8
  %43 = load ptr, ptr %15, align 8, !tbaa !8
  %44 = load ptr, ptr %16, align 8, !tbaa !8
  %45 = load ptr, ptr %17, align 8, !tbaa !8
  %46 = load ptr, ptr %18, align 8, !tbaa !8
  %47 = load ptr, ptr %19, align 8, !tbaa !8
  %48 = call ptr @l_Lean_Meta_instantiateMVarsIfMVarApp(ptr noundef %42, ptr noundef %43, ptr noundef %44, ptr noundef %45, ptr noundef %46, ptr noundef %47)
  store ptr %48, ptr %20, align 8, !tbaa !8
  %49 = load ptr, ptr %20, align 8, !tbaa !8
  %50 = call ptr @lean_ctor_get(ptr noundef %49, i32 noundef 0)
  store ptr %50, ptr %21, align 8, !tbaa !8
  %51 = load ptr, ptr %21, align 8, !tbaa !8
  call void @lean_inc(ptr noundef %51)
  %52 = load ptr, ptr %20, align 8, !tbaa !8
  %53 = call ptr @lean_ctor_get(ptr noundef %52, i32 noundef 1)
  store ptr %53, ptr %22, align 8, !tbaa !8
  %54 = load ptr, ptr %22, align 8, !tbaa !8
  call void @lean_inc(ptr noundef %54)
  %55 = load ptr, ptr %20, align 8, !tbaa !8
  call void @lean_dec(ptr noundef %55)
  %56 = load ptr, ptr @l_Char_reduceDefault___closed__1, align 8, !tbaa !8
  store ptr %56, ptr %23, align 8, !tbaa !8
  %57 = load ptr, ptr @l_Char_reduceVal___closed__2, align 8, !tbaa !8
  store ptr %57, ptr %24, align 8, !tbaa !8
  %58 = load ptr, ptr %21, align 8, !tbaa !8
  %59 = call ptr @l_Lean_Expr_cleanupAnnotations(ptr noundef %58)
  store ptr %59, ptr %25, align 8, !tbaa !8
  %60 = load ptr, ptr %25, align 8, !tbaa !8
  %61 = call zeroext i8 @l_Lean_Expr_isApp(ptr noundef %60)
  store i8 %61, ptr %26, align 1, !tbaa !10
  %62 = load i8, ptr %26, align 1, !tbaa !10
  %63 = zext i8 %62 to i32
  %64 = icmp eq i32 %63, 0
  br i1 %64, label %65, label %80

65:                                               ; preds = %41
  call void @llvm.lifetime.start.p0(i64 8, ptr %27) #7
  call void @llvm.lifetime.start.p0(i64 8, ptr %28) #7
  %66 = load ptr, ptr %25, align 8, !tbaa !8
  call void @lean_dec(ptr noundef %66)
  %67 = call ptr @lean_box(i64 noundef 0)
  store ptr %67, ptr %27, align 8, !tbaa !8
  %68 = load ptr, ptr %24, align 8, !tbaa !8
  %69 = load ptr, ptr %27, align 8, !tbaa !8
  %70 = load ptr, ptr %12, align 8, !tbaa !8
  %71 = load ptr, ptr %13, align 8, !tbaa !8
  %72 = load ptr, ptr %14, align 8, !tbaa !8
  %73 = load ptr, ptr %15, align 8, !tbaa !8
  %74 = load ptr, ptr %16, align 8, !tbaa !8
  %75 = load ptr, ptr %17, align 8, !tbaa !8
  %76 = load ptr, ptr %18, align 8, !tbaa !8
  %77 = load ptr, ptr %22, align 8, !tbaa !8
  %78 = call ptr @lean_apply_9(ptr noundef %68, ptr noundef %69, ptr noundef %70, ptr noundef %71, ptr noundef %72, ptr noundef %73, ptr noundef %74, ptr noundef %75, ptr noundef %76, ptr noundef %77)
  store ptr %78, ptr %28, align 8, !tbaa !8
  %79 = load ptr, ptr %28, align 8, !tbaa !8
  store ptr %79, ptr %10, align 8
  store i32 1, ptr %29, align 4
  call void @llvm.lifetime.end.p0(i64 8, ptr %28) #7
  call void @llvm.lifetime.end.p0(i64 8, ptr %27) #7
  br label %146

80:                                               ; preds = %41
  call void @llvm.lifetime.start.p0(i64 8, ptr %30) #7
  call void @llvm.lifetime.start.p0(i64 1, ptr %31) #7
  %81 = load ptr, ptr %25, align 8, !tbaa !8
  %82 = call ptr @lean_box(i64 noundef 0)
  %83 = call ptr @l_Lean_Expr_appFnCleanup(ptr noundef %81, ptr noundef %82)
  store ptr %83, ptr %30, align 8, !tbaa !8
  %84 = load ptr, ptr %30, align 8, !tbaa !8
  %85 = call zeroext i8 @l_Lean_Expr_isApp(ptr noundef %84)
  store i8 %85, ptr %31, align 1, !tbaa !10
  %86 = load i8, ptr %31, align 1, !tbaa !10
  %87 = zext i8 %86 to i32
  %88 = icmp eq i32 %87, 0
  br i1 %88, label %89, label %104

89:                                               ; preds = %80
  call void @llvm.lifetime.start.p0(i64 8, ptr %32) #7
  call void @llvm.lifetime.start.p0(i64 8, ptr %33) #7
  %90 = load ptr, ptr %30, align 8, !tbaa !8
  call void @lean_dec(ptr noundef %90)
  %91 = call ptr @lean_box(i64 noundef 0)
  store ptr %91, ptr %32, align 8, !tbaa !8
  %92 = load ptr, ptr %24, align 8, !tbaa !8
  %93 = load ptr, ptr %32, align 8, !tbaa !8
  %94 = load ptr, ptr %12, align 8, !tbaa !8
  %95 = load ptr, ptr %13, align 8, !tbaa !8
  %96 = load ptr, ptr %14, align 8, !tbaa !8
  %97 = load ptr, ptr %15, align 8, !tbaa !8
  %98 = load ptr, ptr %16, align 8, !tbaa !8
  %99 = load ptr, ptr %17, align 8, !tbaa !8
  %100 = load ptr, ptr %18, align 8, !tbaa !8
  %101 = load ptr, ptr %22, align 8, !tbaa !8
  %102 = call ptr @lean_apply_9(ptr noundef %92, ptr noundef %93, ptr noundef %94, ptr noundef %95, ptr noundef %96, ptr noundef %97, ptr noundef %98, ptr noundef %99, ptr noundef %100, ptr noundef %101)
  store ptr %102, ptr %33, align 8, !tbaa !8
  %103 = load ptr, ptr %33, align 8, !tbaa !8
  store ptr %103, ptr %10, align 8
  store i32 1, ptr %29, align 4
  call void @llvm.lifetime.end.p0(i64 8, ptr %33) #7
  call void @llvm.lifetime.end.p0(i64 8, ptr %32) #7
  br label %145

104:                                              ; preds = %80
  call void @llvm.lifetime.start.p0(i64 8, ptr %34) #7
  call void @llvm.lifetime.start.p0(i64 8, ptr %35) #7
  call void @llvm.lifetime.start.p0(i64 1, ptr %36) #7
  %105 = load ptr, ptr %30, align 8, !tbaa !8
  %106 = call ptr @lean_box(i64 noundef 0)
  %107 = call ptr @l_Lean_Expr_appFnCleanup(ptr noundef %105, ptr noundef %106)
  store ptr %107, ptr %34, align 8, !tbaa !8
  %108 = load ptr, ptr @l_Char_reduceDefault___closed__4, align 8, !tbaa !8
  store ptr %108, ptr %35, align 8, !tbaa !8
  %109 = load ptr, ptr %34, align 8, !tbaa !8
  %110 = load ptr, ptr %35, align 8, !tbaa !8
  %111 = call zeroext i8 @l_Lean_Expr_isConstOf(ptr noundef %109, ptr noundef %110)
  store i8 %111, ptr %36, align 1, !tbaa !10
  %112 = load ptr, ptr %34, align 8, !tbaa !8
  call void @lean_dec(ptr noundef %112)
  %113 = load i8, ptr %36, align 1, !tbaa !10
  %114 = zext i8 %113 to i32
  %115 = icmp eq i32 %114, 0
  br i1 %115, label %116, label %130

116:                                              ; preds = %104
  call void @llvm.lifetime.start.p0(i64 8, ptr %37) #7
  call void @llvm.lifetime.start.p0(i64 8, ptr %38) #7
  %117 = call ptr @lean_box(i64 noundef 0)
  store ptr %117, ptr %37, align 8, !tbaa !8
  %118 = load ptr, ptr %24, align 8, !tbaa !8
  %119 = load ptr, ptr %37, align 8, !tbaa !8
  %120 = load ptr, ptr %12, align 8, !tbaa !8
  %121 = load ptr, ptr %13, align 8, !tbaa !8
  %122 = load ptr, ptr %14, align 8, !tbaa !8
  %123 = load ptr, ptr %15, align 8, !tbaa !8
  %124 = load ptr, ptr %16, align 8, !tbaa !8
  %125 = load ptr, ptr %17, align 8, !tbaa !8
  %126 = load ptr, ptr %18, align 8, !tbaa !8
  %127 = load ptr, ptr %22, align 8, !tbaa !8
  %128 = call ptr @lean_apply_9(ptr noundef %118, ptr noundef %119, ptr noundef %120, ptr noundef %121, ptr noundef %122, ptr noundef %123, ptr noundef %124, ptr noundef %125, ptr noundef %126, ptr noundef %127)
  store ptr %128, ptr %38, align 8, !tbaa !8
  %129 = load ptr, ptr %38, align 8, !tbaa !8
  store ptr %129, ptr %10, align 8
  store i32 1, ptr %29, align 4
  call void @llvm.lifetime.end.p0(i64 8, ptr %38) #7
  call void @llvm.lifetime.end.p0(i64 8, ptr %37) #7
  br label %144

130:                                              ; preds = %104
  call void @llvm.lifetime.start.p0(i64 8, ptr %39) #7
  call void @llvm.lifetime.start.p0(i64 8, ptr %40) #7
  %131 = call ptr @lean_box(i64 noundef 0)
  store ptr %131, ptr %39, align 8, !tbaa !8
  %132 = load ptr, ptr %23, align 8, !tbaa !8
  %133 = load ptr, ptr %39, align 8, !tbaa !8
  %134 = load ptr, ptr %12, align 8, !tbaa !8
  %135 = load ptr, ptr %13, align 8, !tbaa !8
  %136 = load ptr, ptr %14, align 8, !tbaa !8
  %137 = load ptr, ptr %15, align 8, !tbaa !8
  %138 = load ptr, ptr %16, align 8, !tbaa !8
  %139 = load ptr, ptr %17, align 8, !tbaa !8
  %140 = load ptr, ptr %18, align 8, !tbaa !8
  %141 = load ptr, ptr %22, align 8, !tbaa !8
  %142 = call ptr @lean_apply_9(ptr noundef %132, ptr noundef %133, ptr noundef %134, ptr noundef %135, ptr noundef %136, ptr noundef %137, ptr noundef %138, ptr noundef %139, ptr noundef %140, ptr noundef %141)
  store ptr %142, ptr %40, align 8, !tbaa !8
  %143 = load ptr, ptr %40, align 8, !tbaa !8
  store ptr %143, ptr %10, align 8
  store i32 1, ptr %29, align 4
  call void @llvm.lifetime.end.p0(i64 8, ptr %40) #7
  call void @llvm.lifetime.end.p0(i64 8, ptr %39) #7
  br label %144

144:                                              ; preds = %130, %116
  call void @llvm.lifetime.end.p0(i64 1, ptr %36) #7
  call void @llvm.lifetime.end.p0(i64 8, ptr %35) #7
  call void @llvm.lifetime.end.p0(i64 8, ptr %34) #7
  br label %145

145:                                              ; preds = %144, %89
  call void @llvm.lifetime.end.p0(i64 1, ptr %31) #7
  call void @llvm.lifetime.end.p0(i64 8, ptr %30) #7
  br label %146

146:                                              ; preds = %145, %65
  call void @llvm.lifetime.end.p0(i64 1, ptr %26) #7
  call void @llvm.lifetime.end.p0(i64 8, ptr %25) #7
  call void @llvm.lifetime.end.p0(i64 8, ptr %24) #7
  call void @llvm.lifetime.end.p0(i64 8, ptr %23) #7
  call void @llvm.lifetime.end.p0(i64 8, ptr %22) #7
  call void @llvm.lifetime.end.p0(i64 8, ptr %21) #7
  call void @llvm.lifetime.end.p0(i64 8, ptr %20) #7
  %147 = load ptr, ptr %10, align 8
  ret ptr %147
}