; Function Attrs: nounwind uwtable
define ptr @l_Char_reduceDefault(ptr noundef %0, ptr noundef %1, ptr noundef %2, ptr noundef %3, ptr noundef %4, ptr noundef %5, ptr noundef %6, ptr noundef %7, ptr noundef %8) #0 {
  %10 = tail call ptr @l_Lean_Meta_instantiateMVarsIfMVarApp(ptr noundef %0, ptr noundef %4, ptr noundef %5, ptr noundef %6, ptr noundef %7, ptr noundef %8) #4
  %11 = getelementptr inbounds nuw i8, ptr %10, i64 8
  %12 = load ptr, ptr %11, align 8, !tbaa !10
  %13 = ptrtoint ptr %12 to i64
  %14 = and i64 %13, 1
  %.not = icmp eq i64 %14, 0
  br i1 %.not, label %15, label %lean_inc.exit71

15:                                               ; preds = %9
  %.val.i = load i32, ptr %12, align 4, !tbaa !4
  %16 = icmp sgt i32 %.val.i, 0
  br i1 %16, label %17, label %19, !prof !9

17:                                               ; preds = %15
  %18 = add nuw i32 %.val.i, 1
  store i32 %18, ptr %12, align 4, !tbaa !4
  br label %lean_inc.exit71

19:                                               ; preds = %15
  %.not.i78 = icmp eq i32 %.val.i, 0
  br i1 %.not.i78, label %lean_inc.exit71, label %20

20:                                               ; preds = %19
  tail call void @lean_inc_ref_cold(ptr noundef nonnull %12) #4
  br label %lean_inc.exit71

lean_inc.exit71:                                  ; preds = %20, %19, %17, %9
  %21 = getelementptr inbounds nuw i8, ptr %10, i64 16
  %22 = load ptr, ptr %21, align 8, !tbaa !10
  %23 = ptrtoint ptr %22 to i64
  %24 = and i64 %23, 1
  %.not82 = icmp eq i64 %24, 0
  br i1 %.not82, label %25, label %lean_inc.exit

25:                                               ; preds = %lean_inc.exit71
  %.val.i79 = load i32, ptr %22, align 4, !tbaa !4
  %26 = icmp sgt i32 %.val.i79, 0
  br i1 %26, label %27, label %29, !prof !9

27:                                               ; preds = %25
  %28 = add nuw i32 %.val.i79, 1
  store i32 %28, ptr %22, align 4, !tbaa !4
  br label %lean_inc.exit

29:                                               ; preds = %25
  %.not.i80 = icmp eq i32 %.val.i79, 0
  br i1 %.not.i80, label %lean_inc.exit, label %30

30:                                               ; preds = %29
  tail call void @lean_inc_ref_cold(ptr noundef nonnull %22) #4
  br label %lean_inc.exit

lean_inc.exit:                                    ; preds = %30, %29, %27, %lean_inc.exit71
  %31 = ptrtoint ptr %10 to i64
  %32 = and i64 %31, 1
  %.not83 = icmp eq i64 %32, 0
  br i1 %.not83, label %33, label %lean_dec.exit70

33:                                               ; preds = %lean_inc.exit
  %34 = load i32, ptr %10, align 4, !tbaa !4
  %35 = icmp sgt i32 %34, 1
  br i1 %35, label %36, label %38, !prof !9

36:                                               ; preds = %33
  %37 = add nsw i32 %34, -1
  store i32 %37, ptr %10, align 4, !tbaa !4
  br label %lean_dec.exit70

38:                                               ; preds = %33
  %.not.i = icmp eq i32 %34, 0
  br i1 %.not.i, label %lean_dec.exit70, label %39

39:                                               ; preds = %38
  tail call void @lean_dec_ref_cold(ptr noundef nonnull %10) #4
  br label %lean_dec.exit70

lean_dec.exit70:                                  ; preds = %39, %38, %36, %lean_inc.exit
  %40 = load ptr, ptr @l_Char_reduceDefault___closed__1, align 8, !tbaa !10
  %41 = load ptr, ptr @l_Char_reduceVal___closed__2, align 8, !tbaa !10
  %42 = tail call ptr @l_Lean_Expr_cleanupAnnotations(ptr noundef %12) #4
  %43 = tail call zeroext i8 @l_Lean_Expr_isApp(ptr noundef %42) #4
  %44 = icmp eq i8 %43, 0
  br i1 %44, label %45, label %55

45:                                               ; preds = %lean_dec.exit70
  %46 = ptrtoint ptr %42 to i64
  %47 = and i64 %46, 1
  %.not86 = icmp eq i64 %47, 0
  br i1 %.not86, label %48, label %lean_dec.exit69

48:                                               ; preds = %45
  %49 = load i32, ptr %42, align 4, !tbaa !4
  %50 = icmp sgt i32 %49, 1
  br i1 %50, label %51, label %53, !prof !9

51:                                               ; preds = %48
  %52 = add nsw i32 %49, -1
  store i32 %52, ptr %42, align 4, !tbaa !4
  br label %lean_dec.exit69

53:                                               ; preds = %48
  %.not.i72 = icmp eq i32 %49, 0
  br i1 %.not.i72, label %lean_dec.exit69, label %54

54:                                               ; preds = %53
  tail call void @lean_dec_ref_cold(ptr noundef nonnull %42) #4
  br label %lean_dec.exit69

55:                                               ; preds = %lean_dec.exit70
  %56 = tail call ptr @l_Lean_Expr_appFnCleanup(ptr noundef %42, ptr noundef nonnull inttoptr (i64 1 to ptr)) #4
  %57 = tail call zeroext i8 @l_Lean_Expr_isApp(ptr noundef %56) #4
  %58 = icmp eq i8 %57, 0
  br i1 %58, label %59, label %69

59:                                               ; preds = %55
  %60 = ptrtoint ptr %56 to i64
  %61 = and i64 %60, 1
  %.not85 = icmp eq i64 %61, 0
  br i1 %.not85, label %62, label %lean_dec.exit69

62:                                               ; preds = %59
  %63 = load i32, ptr %56, align 4, !tbaa !4
  %64 = icmp sgt i32 %63, 1
  br i1 %64, label %65, label %67, !prof !9

65:                                               ; preds = %62
  %66 = add nsw i32 %63, -1
  store i32 %66, ptr %56, align 4, !tbaa !4
  br label %lean_dec.exit69

67:                                               ; preds = %62
  %.not.i74 = icmp eq i32 %63, 0
  br i1 %.not.i74, label %lean_dec.exit69, label %68

68:                                               ; preds = %67
  tail call void @lean_dec_ref_cold(ptr noundef nonnull %56) #4
  br label %lean_dec.exit69

69:                                               ; preds = %55
  %70 = tail call ptr @l_Lean_Expr_appFnCleanup(ptr noundef %56, ptr noundef nonnull inttoptr (i64 1 to ptr)) #4
  %71 = load ptr, ptr @l_Char_reduceDefault___closed__4, align 8, !tbaa !10
  %72 = tail call zeroext i8 @l_Lean_Expr_isConstOf(ptr noundef %70, ptr noundef %71) #4
  %73 = ptrtoint ptr %70 to i64
  %74 = and i64 %73, 1
  %.not84 = icmp eq i64 %74, 0
  br i1 %.not84, label %75, label %lean_dec.exit

75:                                               ; preds = %69
  %76 = load i32, ptr %70, align 4, !tbaa !4
  %77 = icmp sgt i32 %76, 1
  br i1 %77, label %78, label %80, !prof !9

78:                                               ; preds = %75
  %79 = add nsw i32 %76, -1
  store i32 %79, ptr %70, align 4, !tbaa !4
  br label %lean_dec.exit

80:                                               ; preds = %75
  %.not.i76 = icmp eq i32 %76, 0
  br i1 %.not.i76, label %lean_dec.exit, label %81

81:                                               ; preds = %80
  tail call void @lean_dec_ref_cold(ptr noundef nonnull %70) #4
  br label %lean_dec.exit

lean_dec.exit:                                    ; preds = %81, %80, %78, %69
  %82 = icmp eq i8 %72, 0
  %. = select i1 %82, ptr %41, ptr %40
  br label %lean_dec.exit69

lean_dec.exit69:                                  ; preds = %lean_dec.exit, %59, %65, %67, %68, %45, %51, %53, %54
  %.sink = phi ptr [ %41, %54 ], [ %41, %53 ], [ %41, %51 ], [ %41, %45 ], [ %41, %68 ], [ %41, %67 ], [ %41, %65 ], [ %41, %59 ], [ %., %lean_dec.exit ]
  %83 = tail call ptr @lean_apply_9(ptr noundef %.sink, ptr noundef nonnull inttoptr (i64 1 to ptr), ptr noundef %1, ptr noundef %2, ptr noundef %3, ptr noundef %4, ptr noundef %5, ptr noundef %6, ptr noundef %7, ptr noundef %22) #4
  ret ptr %83
}